target datalayout = "e-m:e-p270:32:32-p271:32:32-p272:64:64-i64:64-i128:128-f80:128-n8:16:32:64-S128"
target triple = "x86_64-pc-linux-gnu"

%struct._php_stream_ops = type { ptr, ptr, ptr, ptr, ptr, ptr, ptr, ptr, ptr }
%struct._php_stream = type { ptr, ptr, %struct._php_stream_filter_chain, %struct._php_stream_filter_chain, ptr, ptr, %struct._zval_struct, i16, [16 x i8], i32, ptr, ptr, ptr, ptr, i64, ptr, i64, i64, i64, i64, ptr }
%struct._php_stream_filter_chain = type { ptr, ptr, ptr }
%struct._zval_struct = type { %union._zend_value, %union.anon, %union.anon.2 }
%union._zend_value = type { i64 }
%union.anon = type { i32 }
%union.anon.2 = type { i32 }

; Function Attrs: nounwind uwtable
define i32 @_php_stream_make_seekable(ptr noundef %0, ptr noundef %1, i32 noundef %2) #0 {
  %4 = alloca i32, align 4
  %5 = alloca ptr, align 8
  %6 = alloca ptr, align 8
  %7 = alloca i32, align 4
  store ptr %0, ptr %5, align 8
  store ptr %1, ptr %6, align 8
  store i32 %2, ptr %7, align 4
  %8 = load ptr, ptr %6, align 8
  %9 = icmp eq ptr %8, null
  br i1 %9, label %10, label %11

10:                                               ; preds = %3
  store i32 2, ptr %4, align 4
  br label %58

11:                                               ; preds = %3
  %12 = load ptr, ptr %6, align 8
  store ptr null, ptr %12, align 8
  %13 = load i32, ptr %7, align 4
  %14 = and i32 %13, 2
  %15 = icmp eq i32 %14, 0
  br i1 %15, label %16, label %26

16:                                               ; preds = %11
  %17 = load ptr, ptr %5, align 8
  %18 = getelementptr inbounds %struct._php_stream, ptr %17, i32 0, i32 0
  %19 = load ptr, ptr %18, align 8
  %20 = getelementptr inbounds %struct._php_stream_ops, ptr %19, i32 0, i32 5
  %21 = load ptr, ptr %20, align 8
  %22 = icmp ne ptr %21, null
  br i1 %22, label %23, label %26

23:                                               ; preds = %16
  %24 = load ptr, ptr %5, align 8
  %25 = load ptr, ptr %6, align 8
  store ptr %24, ptr %25, align 8
  store i32 0, ptr %4, align 4
  br label %58

26:                                               ; preds = %16, %11
  %27 = load i32, ptr %7, align 4
  %28 = and i32 %27, 1
  %29 = icmp ne i32 %28, 0
  br i1 %29, label %30, label %33

30:                                               ; preds = %26
  %31 = call ptr @_php_stream_fopen_tmpfile(i32 noundef 0)
  %32 = load ptr, ptr %6, align 8
  store ptr %31, ptr %32, align 8
  br label %36

33:                                               ; preds = %26
  %34 = call ptr @_php_stream_temp_create(i32 noundef 0, i64 noundef 2097152)
  %35 = load ptr, ptr %6, align 8
  store ptr %34, ptr %35, align 8
  br label %36

36:                                               ; preds = %33, %30
  %37 = load ptr, ptr %6, align 8
  %38 = load ptr, ptr %37, align 8
  %39 = icmp eq ptr %38, null
  br i1 %39, label %40, label %41

40:                                               ; preds = %36
  store i32 2, ptr %4, align 4
  br label %58

41:                                               ; preds = %36
  %42 = load ptr, ptr %5, align 8
  %43 = load ptr, ptr %6, align 8
  %44 = load ptr, ptr %43, align 8
  %45 = call i32 @_php_stream_copy_to_stream_ex(ptr noundef %42, ptr noundef %44, i64 noundef -1, ptr noundef null)
  %46 = icmp ne i32 %45, 0
  br i1 %46, label %47, label %52

47:                                               ; preds = %41
  %48 = load ptr, ptr %6, align 8
  %49 = load ptr, ptr %48, align 8
  %50 = call i32 @_php_stream_free(ptr noundef %49, i32 noundef 3)
  %51 = load ptr, ptr %6, align 8
  store ptr null, ptr %51, align 8
  store i32 3, ptr %4, align 4
  br label %58

52:                                               ; preds = %41
  %53 = load ptr, ptr %5, align 8
  %54 = call i32 @_php_stream_free(ptr noundef %53, i32 noundef 3)
  %55 = load ptr, ptr %6, align 8
  %56 = load ptr, ptr %55, align 8
  %57 = call i32 @_php_stream_seek(ptr noundef %56, i64 noundef 0, i32 noundef 0)
  store i32 1, ptr %4, align 4
  br label %58

58:                                               ; preds = %52, %47, %40, %23, %10
  %59 = load i32, ptr %4, align 4
  ret i32 %59
}