; Function Attrs: nounwind uwtable
define noundef i32 @_php_stream_make_seekable(ptr noundef %0, ptr noundef %1, i32 noundef %2) local_unnamed_addr #1 {
  %4 = icmp eq ptr %1, null
  br i1 %4, label %30, label %5

5:                                                ; preds = %3
  store ptr null, ptr %1, align 8
  %6 = and i32 %2, 2
  %7 = icmp eq i32 %6, 0
  br i1 %7, label %8, label %13

8:                                                ; preds = %5
  %9 = load ptr, ptr %0, align 8
  %10 = getelementptr inbounds i8, ptr %9, i64 40
  %11 = load ptr, ptr %10, align 8
  %.not = icmp eq ptr %11, null
  br i1 %.not, label %13, label %12

12:                                               ; preds = %8
  store ptr %0, ptr %1, align 8
  br label %30

13:                                               ; preds = %8, %5
  %14 = and i32 %2, 1
  %.not18 = icmp eq i32 %14, 0
  br i1 %.not18, label %17, label %15

15:                                               ; preds = %13
  %16 = tail call ptr @_php_stream_fopen_tmpfile(i32 noundef 0) #7
  br label %19

17:                                               ; preds = %13
  %18 = tail call ptr @_php_stream_temp_create(i32 noundef 0, i64 noundef 2097152) #7
  br label %19

19:                                               ; preds = %17, %15
  %storemerge = phi ptr [ %18, %17 ], [ %16, %15 ]
  store ptr %storemerge, ptr %1, align 8
  %20 = icmp eq ptr %storemerge, null
  br i1 %20, label %30, label %21

21:                                               ; preds = %19
  %22 = tail call i32 @_php_stream_copy_to_stream_ex(ptr noundef %0, ptr noundef nonnull %storemerge, i64 noundef -1, ptr noundef null) #7
  %.not19 = icmp eq i32 %22, 0
  br i1 %.not19, label %26, label %23

23:                                               ; preds = %21
  %24 = load ptr, ptr %1, align 8
  %25 = tail call i32 @_php_stream_free(ptr noundef %24, i32 noundef 3) #7
  store ptr null, ptr %1, align 8
  br label %30

26:                                               ; preds = %21
  %27 = tail call i32 @_php_stream_free(ptr noundef %0, i32 noundef 3) #7
  %28 = load ptr, ptr %1, align 8
  %29 = tail call i32 @_php_stream_seek(ptr noundef %28, i64 noundef 0, i32 noundef 0) #7
  br label %30

30:                                               ; preds = %19, %3, %26, %23, %12
  %.0 = phi i32 [ 0, %12 ], [ 3, %23 ], [ 1, %26 ], [ 2, %3 ], [ 2, %19 ]
  ret i32 %.0
}